target datalayout = "e-m:e-p270:32:32-p271:32:32-p272:64:64-i64:64-i128:128-f80:128-n8:16:32:64-S128"
target triple = "x86_64-pc-linux-gnu"

%struct.expert_field = type { i32, i32 }

@hf_nan_service_id = internal global i32 0, align 4
@ei_nan_elem_len_invalid = internal global %struct.expert_field zeroinitializer, align 4
@.str.740 = private unnamed_addr constant [26 x i8] c"Invalid Service ID length\00", align 1

; Function Attrs: null_pointer_is_valid sspstrong uwtable
define internal void @dissect_attr_service_id_list(ptr noundef %0, ptr noundef %1, i32 noundef %2, i16 noundef zeroext %3, ptr noundef %4) #0 {
  %6 = alloca ptr, align 8
  %7 = alloca ptr, align 8
  %8 = alloca i32, align 4
  %9 = alloca i16, align 2
  %10 = alloca ptr, align 8
  %11 = alloca i32, align 4
  %12 = alloca i32, align 4
  store ptr %0, ptr %6, align 8
  store ptr %1, ptr %7, align 8
  store i32 %2, ptr %8, align 4
  store i16 %3, ptr %9, align 2
  store ptr %4, ptr %10, align 8
  %13 = load i16, ptr %9, align 2
  %14 = zext i16 %13 to i32
  %15 = srem i32 %14, 6
  %16 = icmp ne i32 %15, 0
  br i1 %16, label %21, label %17

17:                                               ; preds = %5
  %18 = load i16, ptr %9, align 2
  %19 = zext i16 %18 to i32
  %20 = icmp eq i32 %19, 0
  br i1 %20, label %21, label %25

21:                                               ; preds = %17, %5
  %22 = load ptr, ptr %10, align 8
  %23 = load ptr, ptr %6, align 8
  %24 = call ptr (ptr, ptr, ptr, ptr, ...) @expert_add_info_format(ptr noundef %22, ptr noundef %23, ptr noundef @ei_nan_elem_len_invalid, ptr noundef @.str.740)
  br label %48

25:                                               ; preds = %17
  call void @llvm.lifetime.start.p0(i64 4, ptr %11) #5
  %26 = load i16, ptr %9, align 2
  %27 = zext i16 %26 to i32
  %28 = sdiv i32 %27, 6
  store i32 %28, ptr %11, align 4
  %29 = load i32, ptr %8, align 4
  %30 = add i32 %29, 3
  store i32 %30, ptr %8, align 4
  call void @llvm.lifetime.start.p0(i64 4, ptr %12) #5
  store i32 1, ptr %12, align 4
  br label %31

31:                                               ; preds = %44, %25
  %32 = load i32, ptr %12, align 4
  %33 = load i32, ptr %11, align 4
  %34 = icmp sle i32 %32, %33
  br i1 %34, label %36, label %35

35:                                               ; preds = %31
  call void @llvm.lifetime.end.p0(i64 4, ptr %12) #5
  br label %47

36:                                               ; preds = %31
  %37 = load ptr, ptr %6, align 8
  %38 = load i32, ptr @hf_nan_service_id, align 4
  %39 = load ptr, ptr %7, align 8
  %40 = load i32, ptr %8, align 4
  %41 = call ptr @proto_tree_add_item(ptr noundef %37, i32 noundef %38, ptr noundef %39, i32 noundef %40, i32 noundef 6, i32 noundef 0)
  %42 = load i32, ptr %8, align 4
  %43 = add i32 %42, 6
  store i32 %43, ptr %8, align 4
  br label %44

44:                                               ; preds = %36
  %45 = load i32, ptr %12, align 4
  %46 = add i32 %45, 1
  store i32 %46, ptr %12, align 4
  br label %31, !llvm.loop !24

47:                                               ; preds = %35
  call void @llvm.lifetime.end.p0(i64 4, ptr %11) #5
  br label %48

48:                                               ; preds = %47, %21
  ret void
}