; Function Attrs: null_pointer_is_valid sspstrong uwtable
define internal fastcc void @dissect_attr_service_id_list(ptr noundef %0, ptr noundef %1, i32 noundef %2, i16 noundef zeroext %3, ptr noundef %4) unnamed_addr #0 {
  %6 = urem i16 %3, 6
  %7 = udiv i16 %3, 6
  %8 = icmp ne i16 %6, 0
  %9 = icmp eq i16 %3, 0
  %or.cond = or i1 %9, %8
  br i1 %or.cond, label %10, label %12

10:                                               ; preds = %5
  %11 = tail call ptr (ptr, ptr, ptr, ptr, ...) @expert_add_info_format(ptr noundef %4, ptr noundef %0, ptr noundef nonnull @ei_nan_elem_len_invalid, ptr noundef nonnull @.str.740)
  br label %.loopexit

12:                                               ; preds = %5
  %.not18 = icmp ult i16 %3, 6
  br i1 %.not18, label %.loopexit, label %.lr.ph.preheader

.lr.ph.preheader:                                 ; preds = %12
  %13 = add i32 %2, 3
  %narrow = add nuw nsw i16 %7, 1
  %14 = zext nneg i16 %narrow to i32
  br label %.lr.ph

.lr.ph:                                           ; preds = %.lr.ph.preheader, %.lr.ph
  %.020 = phi i32 [ %18, %.lr.ph ], [ 1, %.lr.ph.preheader ]
  %.01419 = phi i32 [ %17, %.lr.ph ], [ %13, %.lr.ph.preheader ]
  %15 = load i32, ptr @hf_nan_service_id, align 4
  %16 = tail call ptr @proto_tree_add_item(ptr noundef %0, i32 noundef %15, ptr noundef %1, i32 noundef %.01419, i32 noundef 6, i32 noundef 0)
  %17 = add i32 %.01419, 6
  %18 = add nuw nsw i32 %.020, 1
  %exitcond.not = icmp eq i32 %18, %14
  br i1 %exitcond.not, label %.loopexit, label %.lr.ph, !llvm.loop !24

.loopexit:                                        ; preds = %.lr.ph, %12, %10
  ret void
}